; Function Attrs: mustprogress uwtable
define noundef zeroext i1 @_ZNK32pxrInternal_v0_24__pxrReserved__29HdsiPrimTypePruningSceneIndex10_PrunePathERKNS_7SdfPathE(ptr nocapture noundef nonnull readonly align 8 dereferenceable(240) %0, ptr noundef nonnull align 4 dereferenceable(8) %1) local_unnamed_addr #1 align 2 {
  %3 = getelementptr inbounds nuw i8, ptr %0, i64 184
  %4 = load i8, ptr %3, align 8
  %5 = trunc i8 %4 to i1
  br i1 %5, label %6, label %8

6:                                                ; preds = %2
  %7 = tail call noundef zeroext i1 @_ZNK32pxrInternal_v0_24__pxrReserved__7SdfPath10IsPrimPathEv(ptr noundef nonnull align 4 dereferenceable(8) %1)
  br label %8

8:                                                ; preds = %2, %6
  %.0 = phi i1 [ %7, %6 ], [ true, %2 ]
  ret i1 %.0
}